; Function Attrs: nounwind uwtable
define dso_local void @strbuf_addbuf(ptr noundef captures(none) %0, ptr noundef readonly captures(none) %1) local_unnamed_addr #3 {
  %3 = getelementptr inbounds nuw i8, ptr %1, i64 8
  %4 = load i64, ptr %3, align 8, !tbaa !16
  %5 = load i64, ptr %0, align 8, !tbaa !15
  %.not.i = icmp eq i64 %5, 0
  %6 = icmp eq i64 %4, -1
  br i1 %6, label %12, label %7

7:                                                ; preds = %2
  %8 = getelementptr inbounds nuw i8, ptr %0, i64 8
  %9 = load i64, ptr %8, align 8, !tbaa !16
  %10 = sub nuw i64 -2, %4
  %11 = icmp ult i64 %10, %9
  br i1 %11, label %12, label %13

12:                                               ; preds = %7, %2
  tail call void (ptr, ...) @die(ptr noundef nonnull @.str) #24
  unreachable

13:                                               ; preds = %7
  br i1 %.not.i, label %14, label %16

14:                                               ; preds = %13
  %15 = getelementptr inbounds nuw i8, ptr %0, i64 16
  store ptr null, ptr %15, align 8, !tbaa !12
  br label %16

16:                                               ; preds = %14, %13
  %17 = add nuw i64 %4, 1
  %18 = add i64 %17, %9
  %19 = icmp ugt i64 %18, %5
  br i1 %19, label %st_mult.exit.i, label %26

st_mult.exit.i:                                   ; preds = %16
  %20 = mul i64 %5, 3
  %21 = add i64 %20, 48
  %22 = lshr i64 %21, 1
  %..i = tail call i64 @llvm.umax.i64(i64 %22, i64 %18)
  store i64 %..i, ptr %0, align 8, !tbaa !15
  %23 = getelementptr inbounds nuw i8, ptr %0, i64 16
  %24 = load ptr, ptr %23, align 8, !tbaa !12
  %25 = tail call ptr @xrealloc(ptr noundef %24, i64 noundef %..i) #25
  store ptr %25, ptr %23, align 8, !tbaa !12
  br label %26

26:                                               ; preds = %st_mult.exit.i, %16
  br i1 %.not.i, label %27, label %strbuf_grow.exit

27:                                               ; preds = %26
  %28 = getelementptr inbounds nuw i8, ptr %0, i64 16
  %29 = load ptr, ptr %28, align 8, !tbaa !12
  store i8 0, ptr %29, align 1, !tbaa !4
  br label %strbuf_grow.exit

strbuf_grow.exit:                                 ; preds = %26, %27
  %30 = getelementptr inbounds nuw i8, ptr %0, i64 16
  %31 = load ptr, ptr %30, align 8, !tbaa !12
  %32 = load i64, ptr %8, align 8, !tbaa !16
  %33 = getelementptr inbounds nuw i8, ptr %31, i64 %32
  %34 = getelementptr inbounds nuw i8, ptr %1, i64 16
  %35 = load ptr, ptr %34, align 8, !tbaa !12
  %36 = load i64, ptr %3, align 8, !tbaa !16
  tail call void @llvm.memcpy.p0.p0.i64(ptr align 1 %33, ptr align 1 %35, i64 %36, i1 false)
  %37 = load i64, ptr %8, align 8, !tbaa !16
  %38 = load i64, ptr %3, align 8, !tbaa !16
  %39 = add i64 %38, %37
  %40 = load i64, ptr %0, align 8, !tbaa !15
  %spec.select.i = tail call i64 @llvm.usub.sat.i64(i64 %40, i64 1)
  %41 = icmp ugt i64 %39, %spec.select.i
  br i1 %41, label %42, label %43

42:                                               ; preds = %strbuf_grow.exit
  tail call void (ptr, i32, ptr, ...) @BUG_fl(ptr noundef nonnull @.str.28, i32 noundef 167, ptr noundef nonnull @.str.29) #24
  unreachable

43:                                               ; preds = %strbuf_grow.exit
  store i64 %39, ptr %8, align 8, !tbaa !16
  %44 = load ptr, ptr %30, align 8, !tbaa !12
  %.not9.i = icmp eq ptr %44, @strbuf_slopbuf
  br i1 %.not9.i, label %strbuf_setlen.exit, label %45

45:                                               ; preds = %43
  %46 = getelementptr inbounds nuw i8, ptr %44, i64 %39
  store i8 0, ptr %46, align 1, !tbaa !4
  br label %strbuf_setlen.exit

strbuf_setlen.exit:                               ; preds = %43, %45
  ret void
}